; Function Attrs: mustprogress uwtable
define noundef ptr @lean_profileit(ptr noundef %0, ptr noundef %1, ptr noundef %2, ptr noundef %3) local_unnamed_addr #2 personality ptr @__gxx_personality_v0 {
  %5 = alloca ptr, align 8
  %6 = alloca %"class.lean::time_task", align 8
  %7 = alloca %"class.std::__cxx11::basic_string", align 8
  %8 = alloca %"class.lean::name", align 8
  store ptr %1, ptr %5, align 8, !tbaa !68
  call void @llvm.lifetime.start.p0(i64 104, ptr nonnull %6) #22
  call void @llvm.lifetime.start.p0(i64 32, ptr nonnull %7) #22
  call void @_ZN4lean13string_to_stdB5cxx11EP11lean_object(ptr dead_on_unwind nonnull writable sret(%"class.std::__cxx11::basic_string") align 8 %7, ptr noundef %0)
  store ptr %3, ptr %8, align 8, !tbaa !59
  invoke void @_ZN4lean9time_taskC1ERKNSt7__cxx1112basic_stringIcSt11char_traitsIcESaIcEEERKNS_7optionsENS_4nameE(ptr noundef nonnull align 8 dereferenceable(104) %6, ptr noundef nonnull align 8 dereferenceable(32) %7, ptr noundef nonnull align 8 dereferenceable(8) %5, ptr noundef nonnull %8)
          to label %9 unwind label %33

9:                                                ; preds = %4
  %10 = load ptr, ptr %8, align 8, !tbaa !59
  %11 = ptrtoint ptr %10 to i64
  %12 = and i64 %11, 1
  %.not.i.i = icmp eq i64 %12, 0
  br i1 %.not.i.i, label %13, label %_ZN4lean10object_refD2Ev.exit

13:                                               ; preds = %9
  %14 = load i32, ptr %10, align 4, !tbaa !61
  %15 = icmp sgt i32 %14, 1
  br i1 %15, label %16, label %18, !prof !64

16:                                               ; preds = %13
  %17 = add nsw i32 %14, -1
  store i32 %17, ptr %10, align 4, !tbaa !61
  br label %_ZN4lean10object_refD2Ev.exit

18:                                               ; preds = %13
  %.not.i.i.i = icmp eq i32 %14, 0
  br i1 %.not.i.i.i, label %_ZN4lean10object_refD2Ev.exit, label %19

19:                                               ; preds = %18
  invoke void @lean_dec_ref_cold(ptr noundef nonnull %10)
          to label %_ZN4lean10object_refD2Ev.exit unwind label %20

20:                                               ; preds = %19
  %21 = landingpad { ptr, i32 }
          catch ptr null
  %22 = extractvalue { ptr, i32 } %21, 0
  call void @__clang_call_terminate(ptr %22) #27
  unreachable

_ZN4lean10object_refD2Ev.exit:                    ; preds = %9, %16, %18, %19
  %23 = load ptr, ptr %7, align 8, !tbaa !13
  %24 = getelementptr inbounds nuw i8, ptr %7, i64 16
  %25 = icmp eq ptr %23, %24
  br i1 %25, label %_ZNKSt7__cxx1112basic_stringIcSt11char_traitsIcESaIcEE11_M_is_localEv.exit.thread.i.i, label %_ZNKSt7__cxx1112basic_stringIcSt11char_traitsIcESaIcEE11_M_is_localEv.exit.i.i

_ZNKSt7__cxx1112basic_stringIcSt11char_traitsIcESaIcEE11_M_is_localEv.exit.thread.i.i: ; preds = %_ZN4lean10object_refD2Ev.exit
  %26 = getelementptr inbounds nuw i8, ptr %7, i64 8
  %27 = load i64, ptr %26, align 8, !tbaa !8
  %28 = icmp ult i64 %27, 16
  call void @llvm.assume(i1 %28)
  br label %31

_ZNKSt7__cxx1112basic_stringIcSt11char_traitsIcESaIcEE11_M_is_localEv.exit.i.i: ; preds = %_ZN4lean10object_refD2Ev.exit
  %29 = load i64, ptr %24, align 8, !tbaa !44
  %30 = add i64 %29, 1
  call void @_ZdlPvm(ptr noundef %23, i64 noundef %30) #24
  br label %31

31:                                               ; preds = %_ZNKSt7__cxx1112basic_stringIcSt11char_traitsIcESaIcEE11_M_is_localEv.exit.i.i, %_ZNKSt7__cxx1112basic_stringIcSt11char_traitsIcESaIcEE11_M_is_localEv.exit.thread.i.i
  call void @llvm.lifetime.end.p0(i64 32, ptr nonnull %7) #22
  %32 = invoke noundef ptr @lean_apply_1(ptr noundef %2, ptr noundef nonnull inttoptr (i64 1 to ptr))
          to label %_ZN4lean7apply_1EP11lean_objectS1_.exit unwind label %43

_ZN4lean7apply_1EP11lean_objectS1_.exit:          ; preds = %31
  call void @_ZN4lean9time_taskD1Ev(ptr noundef nonnull align 8 dereferenceable(104) %6) #22
  call void @llvm.lifetime.end.p0(i64 104, ptr nonnull %6) #22
  ret ptr %32

33:                                               ; preds = %4
  %34 = landingpad { ptr, i32 }
          cleanup
  call void @_ZN4lean10object_refD2Ev(ptr noundef nonnull align 8 dereferenceable(8) %8) #22
  %35 = load ptr, ptr %7, align 8, !tbaa !13
  %36 = getelementptr inbounds nuw i8, ptr %7, i64 16
  %37 = icmp eq ptr %35, %36
  br i1 %37, label %_ZNKSt7__cxx1112basic_stringIcSt11char_traitsIcESaIcEE11_M_is_localEv.exit.thread.i.i10, label %_ZNKSt7__cxx1112basic_stringIcSt11char_traitsIcESaIcEE11_M_is_localEv.exit.i.i9

_ZNKSt7__cxx1112basic_stringIcSt11char_traitsIcESaIcEE11_M_is_localEv.exit.thread.i.i10: ; preds = %33
  %38 = getelementptr inbounds nuw i8, ptr %7, i64 8
  %39 = load i64, ptr %38, align 8, !tbaa !8
  %40 = icmp ult i64 %39, 16
  call void @llvm.assume(i1 %40)
  br label %_ZNSt7__cxx1112basic_stringIcSt11char_traitsIcESaIcEED2Ev.exit11

_ZNKSt7__cxx1112basic_stringIcSt11char_traitsIcESaIcEE11_M_is_localEv.exit.i.i9: ; preds = %33
  %41 = load i64, ptr %36, align 8, !tbaa !44
  %42 = add i64 %41, 1
  call void @_ZdlPvm(ptr noundef %35, i64 noundef %42) #24
  br label %_ZNSt7__cxx1112basic_stringIcSt11char_traitsIcESaIcEED2Ev.exit11

_ZNSt7__cxx1112basic_stringIcSt11char_traitsIcESaIcEED2Ev.exit11: ; preds = %_ZNKSt7__cxx1112basic_stringIcSt11char_traitsIcESaIcEE11_M_is_localEv.exit.thread.i.i10, %_ZNKSt7__cxx1112basic_stringIcSt11char_traitsIcESaIcEE11_M_is_localEv.exit.i.i9
  call void @llvm.lifetime.end.p0(i64 32, ptr nonnull %7) #22
  br label %45

43:                                               ; preds = %31
  %44 = landingpad { ptr, i32 }
          cleanup
  call void @_ZN4lean9time_taskD1Ev(ptr noundef nonnull align 8 dereferenceable(104) %6) #22
  br label %45

45:                                               ; preds = %43, %_ZNSt7__cxx1112basic_stringIcSt11char_traitsIcESaIcEED2Ev.exit11
  %.pn7 = phi { ptr, i32 } [ %44, %43 ], [ %34, %_ZNSt7__cxx1112basic_stringIcSt11char_traitsIcESaIcEED2Ev.exit11 ]
  call void @llvm.lifetime.end.p0(i64 104, ptr nonnull %6) #22
  resume { ptr, i32 } %.pn7
}